target datalayout = "e-m:e-p270:32:32-p271:32:32-p272:64:64-i64:64-i128:128-f80:128-n8:16:32:64-S128"
target triple = "x86_64-pc-linux-gnu"

; Function Attrs: nounwind uwtable
define hidden void @timelib_hmsf_to_decimal_hour(i32 noundef %0, i32 noundef %1, i32 noundef %2, i32 noundef %3, ptr noundef %4) #0 {
  %6 = alloca i32, align 4
  %7 = alloca i32, align 4
  %8 = alloca i32, align 4
  %9 = alloca i32, align 4
  %10 = alloca ptr, align 8
  store i32 %0, ptr %6, align 4
  store i32 %1, ptr %7, align 4
  store i32 %2, ptr %8, align 4
  store i32 %3, ptr %9, align 4
  store ptr %4, ptr %10, align 8
  %11 = load i32, ptr %6, align 4
  %12 = icmp sge i32 %11, 0
  br i1 %12, label %13, label %29

13:                                               ; preds = %5
  %14 = load i32, ptr %6, align 4
  %15 = sitofp i32 %14 to double
  %16 = load i32, ptr %7, align 4
  %17 = sitofp i32 %16 to double
  %18 = fdiv double %17, 6.000000e+01
  %19 = fadd double %15, %18
  %20 = load i32, ptr %8, align 4
  %21 = sitofp i32 %20 to double
  %22 = fdiv double %21, 3.600000e+03
  %23 = fadd double %19, %22
  %24 = load i32, ptr %9, align 4
  %25 = sitofp i32 %24 to double
  %26 = fdiv double %25, 3.600000e+09
  %27 = fadd double %23, %26
  %28 = load ptr, ptr %10, align 8
  store double %27, ptr %28, align 8
  br label %45

29:                                               ; preds = %5
  %30 = load i32, ptr %6, align 4
  %31 = sitofp i32 %30 to double
  %32 = load i32, ptr %7, align 4
  %33 = sitofp i32 %32 to double
  %34 = fdiv double %33, 6.000000e+01
  %35 = fsub double %31, %34
  %36 = load i32, ptr %8, align 4
  %37 = sitofp i32 %36 to double
  %38 = fdiv double %37, 3.600000e+03
  %39 = fsub double %35, %38
  %40 = load i32, ptr %9, align 4
  %41 = sitofp i32 %40 to double
  %42 = fdiv double %41, 3.600000e+09
  %43 = fsub double %39, %42
  %44 = load ptr, ptr %10, align 8
  store double %43, ptr %44, align 8
  br label %45

45:                                               ; preds = %29, %13
  ret void
}