; Function Attrs: mustprogress nofree norecurse nosync nounwind willreturn memory(argmem: write) uwtable
define hidden void @timelib_hmsf_to_decimal_hour(i32 noundef %0, i32 noundef %1, i32 noundef %2, i32 noundef %3, ptr nocapture noundef writeonly %4) local_unnamed_addr #10 {
  %6 = icmp sgt i32 %0, -1
  %7 = sitofp i32 %0 to double
  %8 = sitofp i32 %1 to double
  %9 = fdiv double %8, 6.000000e+01
  %10 = sitofp i32 %2 to double
  %11 = fdiv double %10, 3.600000e+03
  %12 = sitofp i32 %3 to double
  %13 = fdiv double %12, 3.600000e+09
  br i1 %6, label %14, label %18

14:                                               ; preds = %5
  %15 = fadd double %9, %7
  %16 = fadd double %15, %11
  %17 = fadd double %16, %13
  br label %22

18:                                               ; preds = %5
  %19 = fsub double %7, %9
  %20 = fsub double %19, %11
  %21 = fsub double %20, %13
  br label %22

22:                                               ; preds = %18, %14
  %storemerge = phi double [ %21, %18 ], [ %17, %14 ]
  store double %storemerge, ptr %4, align 8
  ret void
}